target datalayout = "e-m:e-p270:32:32-p271:32:32-p272:64:64-i64:64-i128:128-f80:128-n8:16:32:64-S128"
target triple = "x86_64-pc-linux-gnu"

%struct.expert_field = type { i32, i32 }
%struct._address = type { i32, i32, ptr, ptr }
%struct.pfcp_session_args = type { ptr, ptr, i64, %struct._address, i8, %struct.pfcp_rule_ids }
%struct.pfcp_rule_ids = type { i32, i32, i32, i32, i32, i32, i32 }

@hf_pfcp_pdr_id = internal global i32 0, align 4
@ei_pfcp_ie_data_not_decoded = internal global %struct.expert_field zeroinitializer, align 4
@.str.2658 = private unnamed_addr constant [3 x i8] c"%u\00", align 1

; Function Attrs: null_pointer_is_valid sspstrong uwtable
define internal i32 @decode_pfcp_pdr_id(ptr noundef %0, ptr noundef %1, ptr noundef %2, ptr noundef %3, i32 noundef %4, ptr noundef %5) #0 {
  %7 = alloca ptr, align 8
  %8 = alloca ptr, align 8
  %9 = alloca ptr, align 8
  %10 = alloca ptr, align 8
  %11 = alloca i32, align 4
  %12 = alloca ptr, align 8
  %13 = alloca i32, align 4
  store ptr %0, ptr %7, align 8
  store ptr %1, ptr %8, align 8
  store ptr %2, ptr %9, align 8
  store ptr %3, ptr %10, align 8
  store i32 %4, ptr %11, align 4
  store ptr %5, ptr %12, align 8
  call void @llvm.lifetime.start.p0(i64 4, ptr %13) #13
  %14 = load ptr, ptr %9, align 8
  %15 = load i32, ptr @hf_pfcp_pdr_id, align 4
  %16 = load ptr, ptr %7, align 8
  %17 = load i32, ptr %11, align 4
  %18 = call ptr @proto_tree_add_item_ret_uint(ptr noundef %14, i32 noundef %15, ptr noundef %16, i32 noundef %17, i32 noundef 2, i32 noundef 0, ptr noundef %13)
  %19 = load i32, ptr %11, align 4
  %20 = add i32 %19, 2
  store i32 %20, ptr %11, align 4
  %21 = load ptr, ptr %10, align 8
  %22 = load i32, ptr %13, align 4
  call void (ptr, ptr, ...) @proto_item_append_text(ptr noundef %21, ptr noundef @.str.2658, i32 noundef %22)
  %23 = load ptr, ptr %12, align 8
  %24 = icmp ne ptr %23, null
  br i1 %24, label %25, label %30

25:                                               ; preds = %6
  %26 = load i32, ptr %13, align 4
  %27 = load ptr, ptr %12, align 8
  %28 = getelementptr inbounds nuw %struct.pfcp_session_args, ptr %27, i32 0, i32 5
  %29 = getelementptr inbounds nuw %struct.pfcp_rule_ids, ptr %28, i32 0, i32 1
  store i32 %26, ptr %29, align 4
  br label %30

30:                                               ; preds = %25, %6
  %31 = load i32, ptr %11, align 4
  call void @llvm.lifetime.end.p0(i64 4, ptr %13) #13
  ret i32 %31
}

; Function Attrs: null_pointer_is_valid sspstrong uwtable
define internal void @dissect_pfcp_pdr_id(ptr noundef %0, ptr noundef %1, ptr noundef %2, ptr noundef %3, i16 noundef zeroext %4, i8 noundef zeroext %5, ptr noundef %6) #0 {
  %8 = alloca ptr, align 8
  %9 = alloca ptr, align 8
  %10 = alloca ptr, align 8
  %11 = alloca ptr, align 8
  %12 = alloca i16, align 2
  %13 = alloca i8, align 1
  %14 = alloca ptr, align 8
  %15 = alloca i32, align 4
  store ptr %0, ptr %8, align 8
  store ptr %1, ptr %9, align 8
  store ptr %2, ptr %10, align 8
  store ptr %3, ptr %11, align 8
  store i16 %4, ptr %12, align 2
  store i8 %5, ptr %13, align 1
  store ptr %6, ptr %14, align 8
  call void @llvm.lifetime.start.p0(i64 4, ptr %15) #13
  store i32 0, ptr %15, align 4
  %16 = load ptr, ptr %8, align 8
  %17 = load ptr, ptr %9, align 8
  %18 = load ptr, ptr %10, align 8
  %19 = load ptr, ptr %11, align 8
  %20 = load i32, ptr %15, align 4
  %21 = load ptr, ptr %14, align 8
  %22 = call i32 @decode_pfcp_pdr_id(ptr noundef %16, ptr noundef %17, ptr noundef %18, ptr noundef %19, i32 noundef %20, ptr noundef %21)
  store i32 %22, ptr %15, align 4
  %23 = load i32, ptr %15, align 4
  %24 = load i16, ptr %12, align 2
  %25 = zext i16 %24 to i32
  %26 = icmp slt i32 %23, %25
  br i1 %26, label %27, label %33

27:                                               ; preds = %7
  %28 = load ptr, ptr %10, align 8
  %29 = load ptr, ptr %9, align 8
  %30 = load ptr, ptr %8, align 8
  %31 = load i32, ptr %15, align 4
  %32 = call ptr @proto_tree_add_expert(ptr noundef %28, ptr noundef %29, ptr noundef @ei_pfcp_ie_data_not_decoded, ptr noundef %30, i32 noundef %31, i32 noundef -1)
  br label %33

33:                                               ; preds = %27, %7
  call void @llvm.lifetime.end.p0(i64 4, ptr %15) #13
  ret void
}